target datalayout = "e-m:e-p270:32:32-p271:32:32-p272:64:64-i64:64-i128:128-f80:128-n8:16:32:64-S128"
target triple = "x86_64-pc-linux-gnu"

%struct.strbuf = type { i64, i64, ptr }
%struct.helper_data = type { ptr, ptr, ptr, i16, ptr, ptr, %struct.refspec, %struct.git_transport_options }
%struct.refspec = type { ptr, i32, i32, i32 }
%struct.git_transport_options = type { i16, i32, ptr, ptr, ptr, ptr, ptr, %struct.list_objects_filter_options, ptr, ptr }
%struct.list_objects_filter_options = type { %struct.strbuf, i32, i8, ptr, i64, i64, i32, i64, i64, ptr }
%struct.transport = type { ptr, ptr, ptr, ptr, ptr, i8, ptr, i8, ptr, ptr, %struct.string_list, i8, ptr, i32, ptr }
%struct.string_list = type { ptr, i64, i64, i8, ptr }
%struct.string_list_item = type { ptr, ptr }

@strbuf_slopbuf = external global [0 x i8], align 1
@__const.set_helper_option.buf = private unnamed_addr constant %struct.strbuf { i64 0, i64 0, ptr @strbuf_slopbuf }, align 8
@.str.5 = private unnamed_addr constant [11 x i8] c"deepen-not\00", align 1
@unsupported_options = internal global [4 x ptr] [ptr @.str.50, ptr @.str.51, ptr @.str.52, ptr @.str.53], align 16
@boolean_options = internal global [4 x ptr] [ptr @.str.52, ptr @.str.53, ptr @.str.54, ptr @.str.55], align 16
@.str.6 = private unnamed_addr constant [11 x i8] c"option %s \00", align 1
@.str.7 = private unnamed_addr constant [5 x i8] c"true\00", align 1
@.str.8 = private unnamed_addr constant [6 x i8] c"false\00", align 1
@.str.42 = private unnamed_addr constant [11 x i8] c"./strbuf.h\00", align 1
@.str.43 = private unnamed_addr constant [30 x i8] c"strbuf_setlen() beyond buffer\00", align 1
@__const.string_list_set_helper_option.buf = private unnamed_addr constant %struct.strbuf { i64 0, i64 0, ptr @strbuf_slopbuf }, align 8

; Function Attrs: inlinehint nounwind uwtable
define internal i64 @strbuf_avail(ptr noundef %0) #6 {
  %2 = alloca ptr, align 8
  store ptr %0, ptr %2, align 8, !tbaa !114
  %3 = load ptr, ptr %2, align 8, !tbaa !114
  %4 = getelementptr inbounds nuw %struct.strbuf, ptr %3, i32 0, i32 0
  %5 = load i64, ptr %4, align 8, !tbaa !120
  %6 = icmp ne i64 %5, 0
  br i1 %6, label %7, label %16

7:                                                ; preds = %1
  %8 = load ptr, ptr %2, align 8, !tbaa !114
  %9 = getelementptr inbounds nuw %struct.strbuf, ptr %8, i32 0, i32 0
  %10 = load i64, ptr %9, align 8, !tbaa !120
  %11 = load ptr, ptr %2, align 8, !tbaa !114
  %12 = getelementptr inbounds nuw %struct.strbuf, ptr %11, i32 0, i32 1
  %13 = load i64, ptr %12, align 8, !tbaa !116
  %14 = sub i64 %10, %13
  %15 = sub i64 %14, 1
  br label %17

16:                                               ; preds = %1
  br label %17

17:                                               ; preds = %16, %7
  %18 = phi i64 [ %15, %7 ], [ 0, %16 ]
  ret i64 %18
}

; Function Attrs: inlinehint nounwind uwtable
define internal void @strbuf_setlen(ptr noundef %0, i64 noundef %1) #6 {
  %3 = alloca ptr, align 8
  %4 = alloca i64, align 8
  store ptr %0, ptr %3, align 8, !tbaa !114
  store i64 %1, ptr %4, align 8, !tbaa !62
  %5 = load i64, ptr %4, align 8, !tbaa !62
  %6 = load ptr, ptr %3, align 8, !tbaa !114
  %7 = getelementptr inbounds nuw %struct.strbuf, ptr %6, i32 0, i32 0
  %8 = load i64, ptr %7, align 8, !tbaa !120
  %9 = icmp ne i64 %8, 0
  br i1 %9, label %10, label %15

10:                                               ; preds = %2
  %11 = load ptr, ptr %3, align 8, !tbaa !114
  %12 = getelementptr inbounds nuw %struct.strbuf, ptr %11, i32 0, i32 0
  %13 = load i64, ptr %12, align 8, !tbaa !120
  %14 = sub i64 %13, 1
  br label %16

15:                                               ; preds = %2
  br label %16

16:                                               ; preds = %15, %10
  %17 = phi i64 [ %14, %10 ], [ 0, %15 ]
  %18 = icmp ugt i64 %5, %17
  br i1 %18, label %19, label %20

19:                                               ; preds = %16
  call void (ptr, i32, ptr, ...) @BUG_fl(ptr noundef @.str.42, i32 noundef 167, ptr noundef @.str.43) #13
  unreachable

20:                                               ; preds = %16
  %21 = load i64, ptr %4, align 8, !tbaa !62
  %22 = load ptr, ptr %3, align 8, !tbaa !114
  %23 = getelementptr inbounds nuw %struct.strbuf, ptr %22, i32 0, i32 1
  store i64 %21, ptr %23, align 8, !tbaa !116
  %24 = load ptr, ptr %3, align 8, !tbaa !114
  %25 = getelementptr inbounds nuw %struct.strbuf, ptr %24, i32 0, i32 2
  %26 = load ptr, ptr %25, align 8, !tbaa !105
  %27 = icmp ne ptr %26, @strbuf_slopbuf
  br i1 %27, label %28, label %34

28:                                               ; preds = %20
  %29 = load ptr, ptr %3, align 8, !tbaa !114
  %30 = getelementptr inbounds nuw %struct.strbuf, ptr %29, i32 0, i32 2
  %31 = load ptr, ptr %30, align 8, !tbaa !105
  %32 = load i64, ptr %4, align 8, !tbaa !62
  %33 = getelementptr inbounds nuw i8, ptr %31, i64 %32
  store i8 0, ptr %33, align 1, !tbaa !106
  br label %35

34:                                               ; preds = %20
  br label %35

35:                                               ; preds = %34, %28
  ret void
}

; Function Attrs: inlinehint nounwind uwtable
define internal void @strbuf_addch(ptr noundef %0, i32 noundef %1) #6 {
  %3 = alloca ptr, align 8
  %4 = alloca i32, align 4
  store ptr %0, ptr %3, align 8, !tbaa !114
  store i32 %1, ptr %4, align 4, !tbaa !29
  %5 = load ptr, ptr %3, align 8, !tbaa !114
  %6 = call i64 @strbuf_avail(ptr noundef %5)
  %7 = icmp ne i64 %6, 0
  br i1 %7, label %10, label %8

8:                                                ; preds = %2
  %9 = load ptr, ptr %3, align 8, !tbaa !114
  call void @strbuf_grow(ptr noundef %9, i64 noundef 1)
  br label %10

10:                                               ; preds = %8, %2
  %11 = load i32, ptr %4, align 4, !tbaa !29
  %12 = trunc i32 %11 to i8
  %13 = load ptr, ptr %3, align 8, !tbaa !114
  %14 = getelementptr inbounds nuw %struct.strbuf, ptr %13, i32 0, i32 2
  %15 = load ptr, ptr %14, align 8, !tbaa !105
  %16 = load ptr, ptr %3, align 8, !tbaa !114
  %17 = getelementptr inbounds nuw %struct.strbuf, ptr %16, i32 0, i32 1
  %18 = load i64, ptr %17, align 8, !tbaa !116
  %19 = add i64 %18, 1
  store i64 %19, ptr %17, align 8, !tbaa !116
  %20 = getelementptr inbounds nuw i8, ptr %15, i64 %18
  store i8 %12, ptr %20, align 1, !tbaa !106
  %21 = load ptr, ptr %3, align 8, !tbaa !114
  %22 = getelementptr inbounds nuw %struct.strbuf, ptr %21, i32 0, i32 2
  %23 = load ptr, ptr %22, align 8, !tbaa !105
  %24 = load ptr, ptr %3, align 8, !tbaa !114
  %25 = getelementptr inbounds nuw %struct.strbuf, ptr %24, i32 0, i32 1
  %26 = load i64, ptr %25, align 8, !tbaa !116
  %27 = getelementptr inbounds nuw i8, ptr %23, i64 %26
  store i8 0, ptr %27, align 1, !tbaa !106
  ret void
}

; Function Attrs: inlinehint nounwind uwtable
define internal void @strbuf_addstr(ptr noundef %0, ptr noundef %1) #6 {
  %3 = alloca ptr, align 8
  %4 = alloca ptr, align 8
  store ptr %0, ptr %3, align 8, !tbaa !114
  store ptr %1, ptr %4, align 8, !tbaa !9
  %5 = load ptr, ptr %3, align 8, !tbaa !114
  %6 = load ptr, ptr %4, align 8, !tbaa !9
  %7 = load ptr, ptr %4, align 8, !tbaa !9
  %8 = call i64 @strlen(ptr noundef %7) #14
  call void @strbuf_add(ptr noundef %5, ptr noundef %6, i64 noundef %8)
  ret void
}

; Function Attrs: nounwind uwtable
define internal i32 @string_list_set_helper_option(ptr noundef %0, ptr noundef %1, ptr noundef %2) #0 {
  %4 = alloca ptr, align 8
  %5 = alloca ptr, align 8
  %6 = alloca ptr, align 8
  %7 = alloca %struct.strbuf, align 8
  %8 = alloca i32, align 4
  %9 = alloca i64, align 8
  %10 = alloca i32, align 4
  store ptr %0, ptr %4, align 8, !tbaa !11
  store ptr %1, ptr %5, align 8, !tbaa !9
  store ptr %2, ptr %6, align 8, !tbaa !108
  call void @llvm.lifetime.start.p0(i64 24, ptr %7) #12
  call void @llvm.memcpy.p0.p0.i64(ptr align 8 %7, ptr align 8 @__const.string_list_set_helper_option.buf, i64 24, i1 false)
  call void @llvm.lifetime.start.p0(i64 4, ptr %8) #12
  store i32 0, ptr %8, align 4, !tbaa !29
  call void @llvm.lifetime.start.p0(i64 8, ptr %9) #12
  store i64 0, ptr %9, align 8, !tbaa !62
  br label %11

11:                                               ; preds = %33, %3
  %12 = load i64, ptr %9, align 8, !tbaa !62
  %13 = load ptr, ptr %6, align 8, !tbaa !108
  %14 = getelementptr inbounds nuw %struct.string_list, ptr %13, i32 0, i32 1
  %15 = load i64, ptr %14, align 8, !tbaa !109
  %16 = icmp ult i64 %12, %15
  br i1 %16, label %18, label %17

17:                                               ; preds = %11
  store i32 2, ptr %10, align 4
  br label %36

18:                                               ; preds = %11
  %19 = load ptr, ptr %5, align 8, !tbaa !9
  call void (ptr, ptr, ...) @strbuf_addf(ptr noundef %7, ptr noundef @.str.6, ptr noundef %19)
  %20 = load ptr, ptr %6, align 8, !tbaa !108
  %21 = getelementptr inbounds nuw %struct.string_list, ptr %20, i32 0, i32 0
  %22 = load ptr, ptr %21, align 8, !tbaa !110
  %23 = load i64, ptr %9, align 8, !tbaa !62
  %24 = getelementptr inbounds nuw %struct.string_list_item, ptr %22, i64 %23
  %25 = getelementptr inbounds nuw %struct.string_list_item, ptr %24, i32 0, i32 0
  %26 = load ptr, ptr %25, align 8, !tbaa !111
  %27 = call i64 @quote_c_style(ptr noundef %26, ptr noundef %7, ptr noundef null, i32 noundef 0)
  call void @strbuf_addch(ptr noundef %7, i32 noundef 10)
  %28 = load ptr, ptr %4, align 8, !tbaa !11
  %29 = call i32 @strbuf_set_helper_option(ptr noundef %28, ptr noundef %7)
  store i32 %29, ptr %8, align 4, !tbaa !29
  %30 = icmp ne i32 %29, 0
  br i1 %30, label %31, label %32

31:                                               ; preds = %18
  store i32 2, ptr %10, align 4
  br label %36

32:                                               ; preds = %18
  call void @strbuf_setlen(ptr noundef %7, i64 noundef 0)
  br label %33

33:                                               ; preds = %32
  %34 = load i64, ptr %9, align 8, !tbaa !62
  %35 = add i64 %34, 1
  store i64 %35, ptr %9, align 8, !tbaa !62
  br label %11, !llvm.loop !113

36:                                               ; preds = %31, %17
  call void @llvm.lifetime.end.p0(i64 8, ptr %9) #12
  br label %37

37:                                               ; preds = %36
  call void @strbuf_release(ptr noundef %7)
  %38 = load i32, ptr %8, align 4, !tbaa !29
  store i32 1, ptr %10, align 4
  call void @llvm.lifetime.end.p0(i64 4, ptr %8) #12
  call void @llvm.lifetime.end.p0(i64 24, ptr %7) #12
  ret i32 %38
}

; Function Attrs: nounwind uwtable
define internal i32 @set_helper_option(ptr noundef %0, ptr noundef %1, ptr noundef %2) #0 {
  %4 = alloca i32, align 4
  %5 = alloca ptr, align 8
  %6 = alloca ptr, align 8
  %7 = alloca ptr, align 8
  %8 = alloca ptr, align 8
  %9 = alloca %struct.strbuf, align 8
  %10 = alloca i32, align 4
  %11 = alloca i32, align 4
  %12 = alloca i32, align 4
  %13 = alloca i64, align 8
  %14 = alloca i64, align 8
  store ptr %0, ptr %5, align 8, !tbaa !4
  store ptr %1, ptr %6, align 8, !tbaa !9
  store ptr %2, ptr %7, align 8, !tbaa !9
  call void @llvm.lifetime.start.p0(i64 8, ptr %8) #12
  %15 = load ptr, ptr %5, align 8, !tbaa !4
  %16 = getelementptr inbounds nuw %struct.transport, ptr %15, i32 0, i32 3
  %17 = load ptr, ptr %16, align 8, !tbaa !30
  store ptr %17, ptr %8, align 8, !tbaa !11
  call void @llvm.lifetime.start.p0(i64 24, ptr %9) #12
  call void @llvm.memcpy.p0.p0.i64(ptr align 8 %9, ptr align 8 @__const.set_helper_option.buf, i64 24, i1 false)
  call void @llvm.lifetime.start.p0(i64 4, ptr %10) #12
  call void @llvm.lifetime.start.p0(i64 4, ptr %11) #12
  store i32 0, ptr %11, align 4, !tbaa !29
  %18 = load ptr, ptr %5, align 8, !tbaa !4
  %19 = call ptr @get_helper(ptr noundef %18)
  %20 = load ptr, ptr %8, align 8, !tbaa !11
  %21 = getelementptr inbounds nuw %struct.helper_data, ptr %20, i32 0, i32 3
  %22 = load i16, ptr %21, align 8
  %23 = lshr i16 %22, 4
  %24 = and i16 %23, 1
  %25 = zext i16 %24 to i32
  %26 = icmp ne i32 %25, 0
  br i1 %26, label %28, label %27

27:                                               ; preds = %3
  store i32 1, ptr %4, align 4
  store i32 1, ptr %12, align 4
  br label %89

28:                                               ; preds = %3
  %29 = load ptr, ptr %6, align 8, !tbaa !9
  %30 = call i32 @strcmp(ptr noundef %29, ptr noundef @.str.5) #14
  %31 = icmp ne i32 %30, 0
  br i1 %31, label %37, label %32

32:                                               ; preds = %28
  %33 = load ptr, ptr %8, align 8, !tbaa !11
  %34 = load ptr, ptr %6, align 8, !tbaa !9
  %35 = load ptr, ptr %7, align 8, !tbaa !9
  %36 = call i32 @string_list_set_helper_option(ptr noundef %33, ptr noundef %34, ptr noundef %35)
  store i32 %36, ptr %4, align 4
  store i32 1, ptr %12, align 4
  br label %89

37:                                               ; preds = %28
  call void @llvm.lifetime.start.p0(i64 8, ptr %13) #12
  store i64 0, ptr %13, align 8, !tbaa !62
  br label %38

38:                                               ; preds = %51, %37
  %39 = load i64, ptr %13, align 8, !tbaa !62
  %40 = icmp ult i64 %39, 4
  br i1 %40, label %42, label %41

41:                                               ; preds = %38
  store i32 2, ptr %12, align 4
  br label %54

42:                                               ; preds = %38
  %43 = load ptr, ptr %6, align 8, !tbaa !9
  %44 = load i64, ptr %13, align 8, !tbaa !62
  %45 = getelementptr inbounds nuw [4 x ptr], ptr @unsupported_options, i64 0, i64 %44
  %46 = load ptr, ptr %45, align 8, !tbaa !9
  %47 = call i32 @strcmp(ptr noundef %43, ptr noundef %46) #14
  %48 = icmp ne i32 %47, 0
  br i1 %48, label %50, label %49

49:                                               ; preds = %42
  store i32 1, ptr %4, align 4
  store i32 1, ptr %12, align 4
  br label %54

50:                                               ; preds = %42
  br label %51

51:                                               ; preds = %50
  %52 = load i64, ptr %13, align 8, !tbaa !62
  %53 = add i64 %52, 1
  store i64 %53, ptr %13, align 8, !tbaa !62
  br label %38, !llvm.loop !66

54:                                               ; preds = %49, %41
  call void @llvm.lifetime.end.p0(i64 8, ptr %13) #12
  %55 = load i32, ptr %12, align 4
  switch i32 %55, label %89 [
    i32 2, label %56
  ]

56:                                               ; preds = %54
  call void @llvm.lifetime.start.p0(i64 8, ptr %14) #12
  store i64 0, ptr %14, align 8, !tbaa !62
  br label %57

57:                                               ; preds = %70, %56
  %58 = load i64, ptr %14, align 8, !tbaa !62
  %59 = icmp ult i64 %58, 4
  br i1 %59, label %61, label %60

60:                                               ; preds = %57
  store i32 5, ptr %12, align 4
  br label %73

61:                                               ; preds = %57
  %62 = load ptr, ptr %6, align 8, !tbaa !9
  %63 = load i64, ptr %14, align 8, !tbaa !62
  %64 = getelementptr inbounds nuw [4 x ptr], ptr @boolean_options, i64 0, i64 %63
  %65 = load ptr, ptr %64, align 8, !tbaa !9
  %66 = call i32 @strcmp(ptr noundef %62, ptr noundef %65) #14
  %67 = icmp ne i32 %66, 0
  br i1 %67, label %69, label %68

68:                                               ; preds = %61
  store i32 1, ptr %11, align 4, !tbaa !29
  store i32 5, ptr %12, align 4
  br label %73

69:                                               ; preds = %61
  br label %70

70:                                               ; preds = %69
  %71 = load i64, ptr %14, align 8, !tbaa !62
  %72 = add i64 %71, 1
  store i64 %72, ptr %14, align 8, !tbaa !62
  br label %57, !llvm.loop !67

73:                                               ; preds = %68, %60
  call void @llvm.lifetime.end.p0(i64 8, ptr %14) #12
  br label %74

74:                                               ; preds = %73
  %75 = load ptr, ptr %6, align 8, !tbaa !9
  call void (ptr, ptr, ...) @strbuf_addf(ptr noundef %9, ptr noundef @.str.6, ptr noundef %75)
  %76 = load i32, ptr %11, align 4, !tbaa !29
  %77 = icmp ne i32 %76, 0
  br i1 %77, label %78, label %82

78:                                               ; preds = %74
  %79 = load ptr, ptr %7, align 8, !tbaa !9
  %80 = icmp ne ptr %79, null
  %81 = select i1 %80, ptr @.str.7, ptr @.str.8
  call void @strbuf_addstr(ptr noundef %9, ptr noundef %81)
  br label %85

82:                                               ; preds = %74
  %83 = load ptr, ptr %7, align 8, !tbaa !9
  %84 = call i64 @quote_c_style(ptr noundef %83, ptr noundef %9, ptr noundef null, i32 noundef 0)
  br label %85

85:                                               ; preds = %82, %78
  call void @strbuf_addch(ptr noundef %9, i32 noundef 10)
  %86 = load ptr, ptr %8, align 8, !tbaa !11
  %87 = call i32 @strbuf_set_helper_option(ptr noundef %86, ptr noundef %9)
  store i32 %87, ptr %10, align 4, !tbaa !29
  call void @strbuf_release(ptr noundef %9)
  %88 = load i32, ptr %10, align 4, !tbaa !29
  store i32 %88, ptr %4, align 4
  store i32 1, ptr %12, align 4
  br label %89

89:                                               ; preds = %85, %54, %32, %27
  call void @llvm.lifetime.end.p0(i64 4, ptr %11) #12
  call void @llvm.lifetime.end.p0(i64 4, ptr %10) #12
  call void @llvm.lifetime.end.p0(i64 24, ptr %9) #12
  call void @llvm.lifetime.end.p0(i64 8, ptr %8) #12
  %90 = load i32, ptr %4, align 4
  ret i32 %90
}