; Function Attrs: nounwind uwtable
define internal range(i32 -1, 2) i32 @set_helper_option(ptr noundef readonly captures(none) %0, ptr noundef %1, ptr noundef %2) #0 {
  %4 = alloca %struct.strbuf, align 8
  %5 = alloca %struct.strbuf, align 8
  %6 = getelementptr inbounds nuw i8, ptr %0, i64 24
  %7 = load ptr, ptr %6, align 8, !tbaa !24
  call void @llvm.lifetime.start.p0(i64 24, ptr nonnull %5) #19
  call void @llvm.memcpy.p0.p0.i64(ptr noundef nonnull align 8 dereferenceable(24) %5, ptr noundef nonnull align 8 dereferenceable(24) @__const.push_refs_with_export.buf, i64 24, i1 false)
  %8 = tail call fastcc ptr @get_helper(ptr noundef %0)
  %9 = getelementptr inbounds nuw i8, ptr %7, i64 24
  %10 = load i16, ptr %9, align 8
  %11 = and i16 %10, 16
  %.not = icmp eq i16 %11, 0
  br i1 %.not, label %.loopexit, label %12

12:                                               ; preds = %3
  %13 = tail call i32 @strcmp(ptr noundef nonnull dereferenceable(1) %1, ptr noundef nonnull dereferenceable(11) @.str.5) #21
  %.not26 = icmp eq i32 %13, 0
  br i1 %.not26, label %14, label %.preheader

14:                                               ; preds = %12
  call void @llvm.lifetime.start.p0(i64 24, ptr nonnull %4) #19
  call void @llvm.memcpy.p0.p0.i64(ptr noundef nonnull align 8 dereferenceable(24) %4, ptr noundef nonnull align 8 dereferenceable(24) @__const.push_refs_with_export.buf, i64 24, i1 false)
  %15 = getelementptr inbounds nuw i8, ptr %2, i64 8
  %16 = load i64, ptr %15, align 8, !tbaa !59
  %.not12.i = icmp eq i64 %16, 0
  br i1 %.not12.i, label %string_list_set_helper_option.exit, label %.lr.ph.i

.lr.ph.i:                                         ; preds = %14
  %17 = getelementptr inbounds nuw i8, ptr %4, i64 8
  %18 = getelementptr inbounds nuw i8, ptr %4, i64 16
  br label %19

19:                                               ; preds = %strbuf_setlen.exit.i, %.lr.ph.i
  %.010.i = phi i64 [ 0, %.lr.ph.i ], [ %36, %strbuf_setlen.exit.i ]
  call void (ptr, ptr, ...) @strbuf_addf(ptr noundef nonnull %4, ptr noundef nonnull @.str.6, ptr noundef nonnull %1) #19
  %20 = load ptr, ptr %2, align 8, !tbaa !60
  %21 = getelementptr inbounds nuw %struct.string_list_item, ptr %20, i64 %.010.i
  %22 = load ptr, ptr %21, align 8, !tbaa !61
  %23 = call i64 @quote_c_style(ptr noundef %22, ptr noundef nonnull %4, ptr noundef null, i32 noundef 0) #19
  %24 = load i64, ptr %4, align 8, !tbaa !63
  %.not.i.i.i = icmp eq i64 %24, 0
  br i1 %.not.i.i.i, label %strbuf_avail.exit.thread.i.i, label %strbuf_avail.exit.i.i

strbuf_avail.exit.i.i:                            ; preds = %19
  %25 = load i64, ptr %17, align 8, !tbaa !64
  %.neg.i.i = add i64 %25, 1
  %.not.i.i = icmp eq i64 %24, %.neg.i.i
  br i1 %.not.i.i, label %strbuf_avail.exit.thread.i.i, label %strbuf_addch.exit.i

strbuf_avail.exit.thread.i.i:                     ; preds = %strbuf_avail.exit.i.i, %19
  call void @strbuf_grow(ptr noundef nonnull %4, i64 noundef 1) #19
  %.pre.i.i = load i64, ptr %17, align 8, !tbaa !64
  %.pre7.i.i = add i64 %.pre.i.i, 1
  br label %strbuf_addch.exit.i

strbuf_addch.exit.i:                              ; preds = %strbuf_avail.exit.thread.i.i, %strbuf_avail.exit.i.i
  %.pre-phi.i.i = phi i64 [ %.pre7.i.i, %strbuf_avail.exit.thread.i.i ], [ %.neg.i.i, %strbuf_avail.exit.i.i ]
  %26 = phi i64 [ %.pre.i.i, %strbuf_avail.exit.thread.i.i ], [ %25, %strbuf_avail.exit.i.i ]
  %27 = load ptr, ptr %18, align 8, !tbaa !65
  store i64 %.pre-phi.i.i, ptr %17, align 8, !tbaa !64
  %28 = getelementptr inbounds nuw i8, ptr %27, i64 %26
  store i8 10, ptr %28, align 1, !tbaa !66
  %29 = load ptr, ptr %18, align 8, !tbaa !65
  %30 = load i64, ptr %17, align 8, !tbaa !64
  %31 = getelementptr inbounds nuw i8, ptr %29, i64 %30
  store i8 0, ptr %31, align 1, !tbaa !66
  %32 = call fastcc i32 @strbuf_set_helper_option(ptr noundef readonly %7, ptr noundef %4)
  %.not.i = icmp eq i32 %32, 0
  br i1 %.not.i, label %33, label %string_list_set_helper_option.exit

33:                                               ; preds = %strbuf_addch.exit.i
  store i64 0, ptr %17, align 8, !tbaa !64
  %34 = load ptr, ptr %18, align 8, !tbaa !65
  %.not9.i.i = icmp eq ptr %34, @strbuf_slopbuf
  br i1 %.not9.i.i, label %strbuf_setlen.exit.i, label %35

35:                                               ; preds = %33
  store i8 0, ptr %34, align 1, !tbaa !66
  br label %strbuf_setlen.exit.i

strbuf_setlen.exit.i:                             ; preds = %35, %33
  %36 = add nuw i64 %.010.i, 1
  %37 = load i64, ptr %15, align 8, !tbaa !59
  %38 = icmp ult i64 %36, %37
  br i1 %38, label %19, label %string_list_set_helper_option.exit, !llvm.loop !67

string_list_set_helper_option.exit:               ; preds = %strbuf_addch.exit.i, %strbuf_setlen.exit.i, %14
  %.1.i = phi i32 [ 0, %14 ], [ 0, %strbuf_setlen.exit.i ], [ %32, %strbuf_addch.exit.i ]
  call void @strbuf_release(ptr noundef nonnull %4) #19
  call void @llvm.lifetime.end.p0(i64 24, ptr nonnull %4) #19
  br label %.loopexit

39:                                               ; preds = %.preheader
  %40 = add nuw nsw i64 %.02235, 1
  %exitcond = icmp eq i64 %40, 4
  br i1 %exitcond, label %.critedge.preheader, label %.preheader, !llvm.loop !68

.preheader:                                       ; preds = %12, %39
  %.02235 = phi i64 [ %40, %39 ], [ 0, %12 ]
  %41 = getelementptr inbounds nuw [4 x ptr], ptr @unsupported_options, i64 0, i64 %.02235
  %42 = load ptr, ptr %41, align 8, !tbaa !69
  %43 = tail call i32 @strcmp(ptr noundef nonnull dereferenceable(1) %1, ptr noundef nonnull dereferenceable(1) %42) #21
  %.not27 = icmp eq i32 %43, 0
  br i1 %.not27, label %.loopexit, label %39

.critedge:                                        ; preds = %.critedge.preheader
  %44 = add nuw nsw i64 %.036, 1
  %exitcond37 = icmp eq i64 %44, 4
  br i1 %exitcond37, label %51, label %.critedge.preheader, !llvm.loop !70

.critedge.preheader:                              ; preds = %39, %.critedge
  %.036 = phi i64 [ %44, %.critedge ], [ 0, %39 ]
  %45 = getelementptr inbounds nuw [4 x ptr], ptr @boolean_options, i64 0, i64 %.036
  %46 = load ptr, ptr %45, align 8, !tbaa !69
  %47 = tail call i32 @strcmp(ptr noundef nonnull dereferenceable(1) %1, ptr noundef nonnull dereferenceable(1) %46) #21
  %.not28 = icmp eq i32 %47, 0
  br i1 %.not28, label %48, label %.critedge

48:                                               ; preds = %.critedge.preheader
  call void (ptr, ptr, ...) @strbuf_addf(ptr noundef nonnull %5, ptr noundef nonnull @.str.6, ptr noundef nonnull %1) #19
  %.not30 = icmp eq ptr %2, null
  %49 = select i1 %.not30, ptr @.str.8, ptr @.str.7
  %50 = select i1 %.not30, i64 5, i64 4
  call void @strbuf_add(ptr noundef nonnull %5, ptr noundef nonnull %49, i64 noundef %50) #19
  br label %53

51:                                               ; preds = %.critedge
  call void (ptr, ptr, ...) @strbuf_addf(ptr noundef nonnull %5, ptr noundef nonnull @.str.6, ptr noundef nonnull %1) #19
  %52 = call i64 @quote_c_style(ptr noundef %2, ptr noundef nonnull %5, ptr noundef null, i32 noundef 0) #19
  br label %53

53:                                               ; preds = %51, %48
  %54 = load i64, ptr %5, align 8, !tbaa !63
  %.not.i.i33 = icmp eq i64 %54, 0
  br i1 %.not.i.i33, label %strbuf_avail.exit.thread.i, label %strbuf_avail.exit.i

strbuf_avail.exit.i:                              ; preds = %53
  %55 = getelementptr inbounds nuw i8, ptr %5, i64 8
  %56 = load i64, ptr %55, align 8, !tbaa !64
  %.neg.i = add i64 %56, 1
  %.not.i34 = icmp eq i64 %54, %.neg.i
  br i1 %.not.i34, label %strbuf_avail.exit.thread.i, label %strbuf_addch.exit

strbuf_avail.exit.thread.i:                       ; preds = %strbuf_avail.exit.i, %53
  call void @strbuf_grow(ptr noundef nonnull %5, i64 noundef 1) #19
  %.phi.trans.insert.i = getelementptr inbounds nuw i8, ptr %5, i64 8
  %.pre.i = load i64, ptr %.phi.trans.insert.i, align 8, !tbaa !64
  %.pre7.i = add i64 %.pre.i, 1
  br label %strbuf_addch.exit

strbuf_addch.exit:                                ; preds = %strbuf_avail.exit.i, %strbuf_avail.exit.thread.i
  %.pre-phi.i = phi i64 [ %.pre7.i, %strbuf_avail.exit.thread.i ], [ %.neg.i, %strbuf_avail.exit.i ]
  %57 = phi i64 [ %.pre.i, %strbuf_avail.exit.thread.i ], [ %56, %strbuf_avail.exit.i ]
  %58 = getelementptr inbounds nuw i8, ptr %5, i64 16
  %59 = load ptr, ptr %58, align 8, !tbaa !65
  %60 = getelementptr inbounds nuw i8, ptr %5, i64 8
  store i64 %.pre-phi.i, ptr %60, align 8, !tbaa !64
  %61 = getelementptr inbounds nuw i8, ptr %59, i64 %57
  store i8 10, ptr %61, align 1, !tbaa !66
  %62 = load ptr, ptr %58, align 8, !tbaa !65
  %63 = load i64, ptr %60, align 8, !tbaa !64
  %64 = getelementptr inbounds nuw i8, ptr %62, i64 %63
  store i8 0, ptr %64, align 1, !tbaa !66
  %65 = call fastcc i32 @strbuf_set_helper_option(ptr noundef %7, ptr noundef %5)
  call void @strbuf_release(ptr noundef nonnull %5) #19
  br label %.loopexit

.loopexit:                                        ; preds = %.preheader, %3, %strbuf_addch.exit, %string_list_set_helper_option.exit
  %.025 = phi i32 [ %65, %strbuf_addch.exit ], [ %.1.i, %string_list_set_helper_option.exit ], [ 1, %3 ], [ 1, %.preheader ]
  call void @llvm.lifetime.end.p0(i64 24, ptr nonnull %5) #19
  ret i32 %.025
}